target datalayout = "e-m:e-p270:32:32-p271:32:32-p272:64:64-i64:64-i128:128-f80:128-n8:16:32:64-S128"
target triple = "x86_64-pc-linux-gnu"

%struct.Agobj_s = type { %struct.Agtag_s, ptr }
%struct.Agtag_s = type { i32, i64 }
%struct.Agrec_s = type { ptr, ptr }
%struct.pointf_s = type { double, double }
%struct.Agedgeinfo_t = type { %struct.Agrec_s, ptr, %struct.port, %struct.port, ptr, ptr, ptr, ptr, i8, i8, i8, i8, i8, ptr, ptr, double, double, %struct.Ppoly_t, i8, i8, i16, i32, i32, i32, i16, i32, ptr }
%struct.port = type { %struct.pointf_s, double, ptr, i8, i8, i8, i8, i8, i8, ptr }
%struct.Ppoly_t = type { ptr, i64 }

; Function Attrs: nounwind uwtable
define i32 @ports_eq(ptr noundef %0, ptr noundef %1) #0 {
  %3 = alloca ptr, align 8
  %4 = alloca ptr, align 8
  store ptr %0, ptr %3, align 8, !tbaa !55
  store ptr %1, ptr %4, align 8, !tbaa !55
  %5 = load ptr, ptr %3, align 8, !tbaa !55
  %6 = getelementptr inbounds nuw %struct.Agobj_s, ptr %5, i32 0, i32 1
  %7 = load ptr, ptr %6, align 8, !tbaa !8
  %8 = getelementptr inbounds nuw %struct.Agedgeinfo_t, ptr %7, i32 0, i32 3
  %9 = getelementptr inbounds nuw %struct.port, ptr %8, i32 0, i32 3
  %10 = load i8, ptr %9, align 8, !tbaa !136, !range !34, !noundef !35
  %11 = trunc i8 %10 to i1
  %12 = zext i1 %11 to i32
  %13 = load ptr, ptr %4, align 8, !tbaa !55
  %14 = getelementptr inbounds nuw %struct.Agobj_s, ptr %13, i32 0, i32 1
  %15 = load ptr, ptr %14, align 8, !tbaa !8
  %16 = getelementptr inbounds nuw %struct.Agedgeinfo_t, ptr %15, i32 0, i32 3
  %17 = getelementptr inbounds nuw %struct.port, ptr %16, i32 0, i32 3
  %18 = load i8, ptr %17, align 8, !tbaa !136, !range !34, !noundef !35
  %19 = trunc i8 %18 to i1
  %20 = zext i1 %19 to i32
  %21 = icmp eq i32 %12, %20
  br i1 %21, label %22, label %105

22:                                               ; preds = %2
  %23 = load ptr, ptr %3, align 8, !tbaa !55
  %24 = getelementptr inbounds nuw %struct.Agobj_s, ptr %23, i32 0, i32 1
  %25 = load ptr, ptr %24, align 8, !tbaa !8
  %26 = getelementptr inbounds nuw %struct.Agedgeinfo_t, ptr %25, i32 0, i32 3
  %27 = getelementptr inbounds nuw %struct.port, ptr %26, i32 0, i32 0
  %28 = getelementptr inbounds nuw %struct.pointf_s, ptr %27, i32 0, i32 0
  %29 = load double, ptr %28, align 8, !tbaa !137
  %30 = load ptr, ptr %4, align 8, !tbaa !55
  %31 = getelementptr inbounds nuw %struct.Agobj_s, ptr %30, i32 0, i32 1
  %32 = load ptr, ptr %31, align 8, !tbaa !8
  %33 = getelementptr inbounds nuw %struct.Agedgeinfo_t, ptr %32, i32 0, i32 3
  %34 = getelementptr inbounds nuw %struct.port, ptr %33, i32 0, i32 0
  %35 = getelementptr inbounds nuw %struct.pointf_s, ptr %34, i32 0, i32 0
  %36 = load double, ptr %35, align 8, !tbaa !137
  %37 = fcmp oeq double %29, %36
  br i1 %37, label %38, label %54

38:                                               ; preds = %22
  %39 = load ptr, ptr %3, align 8, !tbaa !55
  %40 = getelementptr inbounds nuw %struct.Agobj_s, ptr %39, i32 0, i32 1
  %41 = load ptr, ptr %40, align 8, !tbaa !8
  %42 = getelementptr inbounds nuw %struct.Agedgeinfo_t, ptr %41, i32 0, i32 3
  %43 = getelementptr inbounds nuw %struct.port, ptr %42, i32 0, i32 0
  %44 = getelementptr inbounds nuw %struct.pointf_s, ptr %43, i32 0, i32 1
  %45 = load double, ptr %44, align 8, !tbaa !138
  %46 = load ptr, ptr %4, align 8, !tbaa !55
  %47 = getelementptr inbounds nuw %struct.Agobj_s, ptr %46, i32 0, i32 1
  %48 = load ptr, ptr %47, align 8, !tbaa !8
  %49 = getelementptr inbounds nuw %struct.Agedgeinfo_t, ptr %48, i32 0, i32 3
  %50 = getelementptr inbounds nuw %struct.port, ptr %49, i32 0, i32 0
  %51 = getelementptr inbounds nuw %struct.pointf_s, ptr %50, i32 0, i32 1
  %52 = load double, ptr %51, align 8, !tbaa !138
  %53 = fcmp oeq double %45, %52
  br i1 %53, label %62, label %54

54:                                               ; preds = %38, %22
  %55 = load ptr, ptr %3, align 8, !tbaa !55
  %56 = getelementptr inbounds nuw %struct.Agobj_s, ptr %55, i32 0, i32 1
  %57 = load ptr, ptr %56, align 8, !tbaa !8
  %58 = getelementptr inbounds nuw %struct.Agedgeinfo_t, ptr %57, i32 0, i32 3
  %59 = getelementptr inbounds nuw %struct.port, ptr %58, i32 0, i32 3
  %60 = load i8, ptr %59, align 8, !tbaa !136, !range !34, !noundef !35
  %61 = trunc i8 %60 to i1
  br i1 %61, label %105, label %62

62:                                               ; preds = %54, %38
  %63 = load ptr, ptr %3, align 8, !tbaa !55
  %64 = getelementptr inbounds nuw %struct.Agobj_s, ptr %63, i32 0, i32 1
  %65 = load ptr, ptr %64, align 8, !tbaa !8
  %66 = getelementptr inbounds nuw %struct.Agedgeinfo_t, ptr %65, i32 0, i32 2
  %67 = getelementptr inbounds nuw %struct.port, ptr %66, i32 0, i32 0
  %68 = getelementptr inbounds nuw %struct.pointf_s, ptr %67, i32 0, i32 0
  %69 = load double, ptr %68, align 8, !tbaa !139
  %70 = load ptr, ptr %4, align 8, !tbaa !55
  %71 = getelementptr inbounds nuw %struct.Agobj_s, ptr %70, i32 0, i32 1
  %72 = load ptr, ptr %71, align 8, !tbaa !8
  %73 = getelementptr inbounds nuw %struct.Agedgeinfo_t, ptr %72, i32 0, i32 2
  %74 = getelementptr inbounds nuw %struct.port, ptr %73, i32 0, i32 0
  %75 = getelementptr inbounds nuw %struct.pointf_s, ptr %74, i32 0, i32 0
  %76 = load double, ptr %75, align 8, !tbaa !139
  %77 = fcmp oeq double %69, %76
  br i1 %77, label %78, label %94

78:                                               ; preds = %62
  %79 = load ptr, ptr %3, align 8, !tbaa !55
  %80 = getelementptr inbounds nuw %struct.Agobj_s, ptr %79, i32 0, i32 1
  %81 = load ptr, ptr %80, align 8, !tbaa !8
  %82 = getelementptr inbounds nuw %struct.Agedgeinfo_t, ptr %81, i32 0, i32 2
  %83 = getelementptr inbounds nuw %struct.port, ptr %82, i32 0, i32 0
  %84 = getelementptr inbounds nuw %struct.pointf_s, ptr %83, i32 0, i32 1
  %85 = load double, ptr %84, align 8, !tbaa !140
  %86 = load ptr, ptr %4, align 8, !tbaa !55
  %87 = getelementptr inbounds nuw %struct.Agobj_s, ptr %86, i32 0, i32 1
  %88 = load ptr, ptr %87, align 8, !tbaa !8
  %89 = getelementptr inbounds nuw %struct.Agedgeinfo_t, ptr %88, i32 0, i32 2
  %90 = getelementptr inbounds nuw %struct.port, ptr %89, i32 0, i32 0
  %91 = getelementptr inbounds nuw %struct.pointf_s, ptr %90, i32 0, i32 1
  %92 = load double, ptr %91, align 8, !tbaa !140
  %93 = fcmp oeq double %85, %92
  br i1 %93, label %103, label %94

94:                                               ; preds = %78, %62
  %95 = load ptr, ptr %3, align 8, !tbaa !55
  %96 = getelementptr inbounds nuw %struct.Agobj_s, ptr %95, i32 0, i32 1
  %97 = load ptr, ptr %96, align 8, !tbaa !8
  %98 = getelementptr inbounds nuw %struct.Agedgeinfo_t, ptr %97, i32 0, i32 2
  %99 = getelementptr inbounds nuw %struct.port, ptr %98, i32 0, i32 3
  %100 = load i8, ptr %99, align 8, !tbaa !141, !range !34, !noundef !35
  %101 = trunc i8 %100 to i1
  %102 = xor i1 %101, true
  br label %103

103:                                              ; preds = %94, %78
  %104 = phi i1 [ true, %78 ], [ %102, %94 ]
  br label %105

105:                                              ; preds = %103, %54, %2
  %106 = phi i1 [ false, %54 ], [ false, %2 ], [ %104, %103 ]
  %107 = zext i1 %106 to i32
  ret i32 %107
}