; Function Attrs: mustprogress nofree norecurse nosync nounwind willreturn memory(read, inaccessiblemem: none) uwtable
define range(i32 0, 2) i32 @ports_eq(ptr noundef readonly captures(none) %0, ptr noundef readonly captures(none) %1) local_unnamed_addr #3 {
  %3 = getelementptr inbounds nuw i8, ptr %0, i64 16
  %4 = load ptr, ptr %3, align 8, !tbaa !3
  %5 = getelementptr inbounds nuw i8, ptr %4, i64 104
  %6 = load i8, ptr %5, align 8, !tbaa !160, !range !33, !noundef !34
  %7 = getelementptr inbounds nuw i8, ptr %1, i64 16
  %8 = load ptr, ptr %7, align 8, !tbaa !3
  %9 = getelementptr inbounds nuw i8, ptr %8, i64 104
  %10 = load i8, ptr %9, align 8, !tbaa !160, !range !33, !noundef !34
  %11 = icmp eq i8 %6, %10
  br i1 %11, label %12, label %43

12:                                               ; preds = %2
  %13 = getelementptr inbounds nuw i8, ptr %8, i64 72
  %14 = getelementptr inbounds nuw i8, ptr %4, i64 72
  %15 = load double, ptr %14, align 8, !tbaa !108
  %16 = load double, ptr %13, align 8, !tbaa !108
  %17 = fcmp oeq double %15, %16
  br i1 %17, label %18, label %24

18:                                               ; preds = %12
  %19 = getelementptr inbounds nuw i8, ptr %4, i64 80
  %20 = load double, ptr %19, align 8, !tbaa !161
  %21 = getelementptr inbounds nuw i8, ptr %8, i64 80
  %22 = load double, ptr %21, align 8, !tbaa !161
  %23 = fcmp oeq double %20, %22
  br i1 %23, label %26, label %24

24:                                               ; preds = %18, %12
  %25 = trunc nuw i8 %6 to i1
  br i1 %25, label %43, label %26

26:                                               ; preds = %24, %18
  %27 = getelementptr inbounds nuw i8, ptr %4, i64 24
  %28 = load double, ptr %27, align 8, !tbaa !109
  %29 = getelementptr inbounds nuw i8, ptr %8, i64 24
  %30 = load double, ptr %29, align 8, !tbaa !109
  %31 = fcmp oeq double %28, %30
  br i1 %31, label %32, label %38

32:                                               ; preds = %26
  %33 = getelementptr inbounds nuw i8, ptr %4, i64 32
  %34 = load double, ptr %33, align 8, !tbaa !162
  %35 = getelementptr inbounds nuw i8, ptr %8, i64 32
  %36 = load double, ptr %35, align 8, !tbaa !162
  %37 = fcmp oeq double %34, %36
  br i1 %37, label %43, label %38

38:                                               ; preds = %32, %26
  %39 = getelementptr inbounds nuw i8, ptr %4, i64 56
  %40 = load i8, ptr %39, align 8, !tbaa !163, !range !33, !noundef !34
  %41 = xor i8 %40, 1
  %42 = zext nneg i8 %41 to i32
  br label %43

43:                                               ; preds = %32, %38, %24, %2
  %44 = phi i32 [ 0, %24 ], [ 0, %2 ], [ 1, %32 ], [ %42, %38 ]
  ret i32 %44
}